target datalayout = "e-m:e-p270:32:32-p271:32:32-p272:64:64-i64:64-i128:128-f80:128-n8:16:32:64-S128"
target triple = "x86_64-pc-linux-gnu"

%"class.ozz::io::Stream" = type { ptr }
%"class.ozz::io::MemoryStream" = type { %"class.ozz::io::Stream", ptr, i64, i32, i32 }

; Function Attrs: alwaysinline mustprogress nounwind uwtable
define linkonce_odr dso_local noundef i32 @_ZN3ozz4math3MinIiEET_S2_S2_(i32 noundef %0, i32 noundef %1) #7 comdat {
  %3 = alloca i32, align 4
  %4 = alloca i32, align 4
  store i32 %0, ptr %3, align 4, !tbaa !23
  store i32 %1, ptr %4, align 4, !tbaa !23
  %5 = load i32, ptr %3, align 4, !tbaa !23
  %6 = load i32, ptr %4, align 4, !tbaa !23
  %7 = icmp slt i32 %5, %6
  br i1 %7, label %8, label %10

8:                                                ; preds = %2
  %9 = load i32, ptr %3, align 4, !tbaa !23
  br label %12

10:                                               ; preds = %2
  %11 = load i32, ptr %4, align 4, !tbaa !23
  br label %12

12:                                               ; preds = %10, %8
  %13 = phi i32 [ %9, %8 ], [ %11, %10 ]
  ret i32 %13
}

; Function Attrs: mustprogress uwtable
define dso_local noundef i64 @_ZN3ozz2io12MemoryStream4ReadEPvm(ptr noundef nonnull align 8 dereferenceable(32) %0, ptr noundef %1, i64 noundef %2) unnamed_addr #0 align 2 {
  %4 = alloca i64, align 8
  %5 = alloca ptr, align 8
  %6 = alloca ptr, align 8
  %7 = alloca i64, align 8
  %8 = alloca i32, align 4
  store ptr %0, ptr %5, align 8, !tbaa !27
  store ptr %1, ptr %6, align 8, !tbaa !20
  store i64 %2, ptr %7, align 8, !tbaa !21
  %9 = load ptr, ptr %5, align 8
  %10 = getelementptr inbounds nuw %"class.ozz::io::MemoryStream", ptr %9, i32 0, i32 4
  %11 = load i32, ptr %10, align 4, !tbaa !33
  %12 = getelementptr inbounds nuw %"class.ozz::io::MemoryStream", ptr %9, i32 0, i32 3
  %13 = load i32, ptr %12, align 8, !tbaa !32
  %14 = icmp sgt i32 %11, %13
  br i1 %14, label %18, label %15

15:                                               ; preds = %3
  %16 = load i64, ptr %7, align 8, !tbaa !21
  %17 = icmp ugt i64 %16, 2147483647
  br i1 %17, label %18, label %19

18:                                               ; preds = %15, %3
  store i64 0, ptr %4, align 8
  br label %43

19:                                               ; preds = %15
  call void @llvm.lifetime.start.p0(i64 4, ptr %8) #10
  %20 = getelementptr inbounds nuw %"class.ozz::io::MemoryStream", ptr %9, i32 0, i32 3
  %21 = load i32, ptr %20, align 8, !tbaa !32
  %22 = getelementptr inbounds nuw %"class.ozz::io::MemoryStream", ptr %9, i32 0, i32 4
  %23 = load i32, ptr %22, align 4, !tbaa !33
  %24 = sub nsw i32 %21, %23
  %25 = load i64, ptr %7, align 8, !tbaa !21
  %26 = trunc i64 %25 to i32
  %27 = call noundef i32 @_ZN3ozz4math3MinIiEET_S2_S2_(i32 noundef %24, i32 noundef %26)
  store i32 %27, ptr %8, align 4, !tbaa !23
  %28 = load ptr, ptr %6, align 8, !tbaa !20
  %29 = getelementptr inbounds nuw %"class.ozz::io::MemoryStream", ptr %9, i32 0, i32 1
  %30 = load ptr, ptr %29, align 8, !tbaa !29
  %31 = getelementptr inbounds nuw %"class.ozz::io::MemoryStream", ptr %9, i32 0, i32 4
  %32 = load i32, ptr %31, align 4, !tbaa !33
  %33 = sext i32 %32 to i64
  %34 = getelementptr inbounds i8, ptr %30, i64 %33
  %35 = load i32, ptr %8, align 4, !tbaa !23
  %36 = sext i32 %35 to i64
  call void @llvm.memcpy.p0.p0.i64(ptr align 1 %28, ptr align 1 %34, i64 %36, i1 false)
  %37 = load i32, ptr %8, align 4, !tbaa !23
  %38 = getelementptr inbounds nuw %"class.ozz::io::MemoryStream", ptr %9, i32 0, i32 4
  %39 = load i32, ptr %38, align 4, !tbaa !33
  %40 = add nsw i32 %39, %37
  store i32 %40, ptr %38, align 4, !tbaa !33
  %41 = load i32, ptr %8, align 4, !tbaa !23
  %42 = sext i32 %41 to i64
  store i64 %42, ptr %4, align 8
  call void @llvm.lifetime.end.p0(i64 4, ptr %8) #10
  br label %43

43:                                               ; preds = %19, %18
  %44 = load i64, ptr %4, align 8
  ret i64 %44
}